; Function Attrs: mustprogress uwtable
define void @_ZN5arrow2io21FixedSizeBufferWriter4SeekEl(ptr noalias sret(%"class.arrow::Status") align 8 %agg.result, ptr nocapture noundef nonnull readonly align 8 dereferenceable(24) %this, i64 noundef %position) unnamed_addr #4 align 2 {
entry:
  %impl_ = getelementptr inbounds i8, ptr %this, i64 16
  %0 = load ptr, ptr %impl_, align 8
  tail call void @llvm.experimental.noalias.scope.decl(metadata !92)
  %cmp.i = icmp slt i64 %position, 0
  %size_.i = getelementptr inbounds i8, ptr %0, i64 64
  %1 = load i64, ptr %size_.i, align 8, !noalias !92
  %cmp2.i = icmp slt i64 %1, %position
  %or.cond.i = select i1 %cmp.i, i1 true, i1 %cmp2.i
  br i1 %or.cond.i, label %if.then.i, label %if.end.i

if.then.i:                                        ; preds = %entry
  tail call void @_ZN5arrow6Status8FromArgsIJRA19_KcEEES0_NS_10StatusCodeEDpOT_(ptr sret(%"class.arrow::Status") align 8 %agg.result, i8 noundef signext 5, ptr noundef nonnull align 1 dereferenceable(19) @.str.2)
  br label %_ZN5arrow2io21FixedSizeBufferWriter25FixedSizeBufferWriterImpl4SeekEl.exit

if.end.i:                                         ; preds = %entry
  %position_.i = getelementptr inbounds i8, ptr %0, i64 72
  store i64 %position, ptr %position_.i, align 8, !noalias !92
  store ptr null, ptr %agg.result, align 8, !alias.scope !95
  br label %_ZN5arrow2io21FixedSizeBufferWriter25FixedSizeBufferWriterImpl4SeekEl.exit

_ZN5arrow2io21FixedSizeBufferWriter25FixedSizeBufferWriterImpl4SeekEl.exit: ; preds = %if.then.i, %if.end.i
  ret void
}